; ModuleID = '51/794.c'
source_filename = "51/794.c"
target datalayout = "e-m:e-p270:32:32-p271:32:32-p272:64:64-i64:64-f80:128-n8:16:32:64-S128"
target triple = "x86_64-pc-linux-gnu"

@.str = private unnamed_addr constant [3 x i8] c"%d\00", align 1
@.str.1 = private unnamed_addr constant [3 x i8] c"%s\00", align 1
@.str.2 = private unnamed_addr constant [3 x i8] c"NO\00", align 1
@.str.3 = private unnamed_addr constant [4 x i8] c"%d\0A\00", align 1
@.str.4 = private unnamed_addr constant [3 x i8] c"%c\00", align 1
@.str.5 = private unnamed_addr constant [2 x i8] c"\0A\00", align 1

; Function Attrs: noinline nounwind uwtable
define dso_local i32 @main() #0 {
  %1 = alloca i32, align 4
  %2 = alloca [501 x i8], align 16
  %3 = alloca [501 x i32], align 16
  %4 = alloca i32, align 4
  %5 = alloca i32, align 4
  %6 = alloca i32, align 4
  %7 = alloca i32, align 4
  %8 = alloca i32, align 4
  %9 = alloca i32, align 4
  %10 = alloca i32, align 4
  store i32 0, i32* %1, align 4
  %11 = call i32 (i8*, ...) @__isoc99_scanf(i8* getelementptr inbounds ([3 x i8], [3 x i8]* @.str, i64 0, i64 0), i32* %4)
  %12 = getelementptr inbounds [501 x i8], [501 x i8]* %2, i64 0, i64 0
  %13 = call i32 (i8*, ...) @__isoc99_scanf(i8* getelementptr inbounds ([3 x i8], [3 x i8]* @.str.1, i64 0, i64 0), i8* %12)
  %14 = getelementptr inbounds [501 x i8], [501 x i8]* %2, i64 0, i64 0
  %15 = call i64 @strlen(i8* %14) #3
  %16 = trunc i64 %15 to i32
  store i32 %16, i32* %5, align 4
  store i32 0, i32* %6, align 4
  br label %17

17:                                               ; preds = %88, %0
  %18 = load i32, i32* %6, align 4
  %19 = load i32, i32* %5, align 4
  %20 = load i32, i32* %4, align 4
  %21 = sub nsw i32 %19, %20
  %22 = icmp slt i32 %18, %21
  br i1 %22, label %23, label %91

23:                                               ; preds = %17
  %24 = load i32, i32* %6, align 4
  %25 = sext i32 %24 to i64
  %26 = getelementptr inbounds [501 x i32], [501 x i32]* %3, i64 0, i64 %25
  store i32 1, i32* %26, align 4
  %27 = load i32, i32* %6, align 4
  %28 = add nsw i32 %27, 1
  store i32 %28, i32* %7, align 4
  br label %29

29:                                               ; preds = %84, %23
  %30 = load i32, i32* %7, align 4
  %31 = load i32, i32* %5, align 4
  %32 = load i32, i32* %4, align 4
  %33 = sub nsw i32 %31, %32
  %34 = icmp sle i32 %30, %33
  br i1 %34, label %35, label %87

35:                                               ; preds = %29
  %36 = load i32, i32* %7, align 4
  %37 = sext i32 %36 to i64
  %38 = getelementptr inbounds [501 x i8], [501 x i8]* %2, i64 0, i64 %37
  %39 = load i8, i8* %38, align 1
  %40 = sext i8 %39 to i32
  %41 = load i32, i32* %6, align 4
  %42 = sext i32 %41 to i64
  %43 = getelementptr inbounds [501 x i8], [501 x i8]* %2, i64 0, i64 %42
  %44 = load i8, i8* %43, align 1
  %45 = sext i8 %44 to i32
  %46 = icmp eq i32 %40, %45
  br i1 %46, label %47, label %83

47:                                               ; preds = %35
  store i32 0, i32* %9, align 4
  store i32 1, i32* %8, align 4
  br label %48

48:                                               ; preds = %70, %47
  %49 = load i32, i32* %8, align 4
  %50 = load i32, i32* %4, align 4
  %51 = icmp slt i32 %49, %50
  br i1 %51, label %52, label %73

52:                                               ; preds = %48
  %53 = load i32, i32* %7, align 4
  %54 = load i32, i32* %8, align 4
  %55 = add nsw i32 %53, %54
  %56 = sext i32 %55 to i64
  %57 = getelementptr inbounds [501 x i8], [501 x i8]* %2, i64 0, i64 %56
  %58 = load i8, i8* %57, align 1
  %59 = sext i8 %58 to i32
  %60 = load i32, i32* %6, align 4
  %61 = load i32, i32* %8, align 4
  %62 = add nsw i32 %60, %61
  %63 = sext i32 %62 to i64
  %64 = getelementptr inbounds [501 x i8], [501 x i8]* %2, i64 0, i64 %63
  %65 = load i8, i8* %64, align 1
  %66 = sext i8 %65 to i32
  %67 = icmp ne i32 %59, %66
  br i1 %67, label %68, label %69

68:                                               ; preds = %52
  store i32 1, i32* %9, align 4
  br label %69

69:                                               ; preds = %68, %52
  br label %70

70:                                               ; preds = %69
  %71 = load i32, i32* %8, align 4
  %72 = add nsw i32 %71, 1
  store i32 %72, i32* %8, align 4
  br label %48

73:                                               ; preds = %48
  %74 = load i32, i32* %9, align 4
  %75 = icmp eq i32 %74, 0
  br i1 %75, label %76, label %82

76:                                               ; preds = %73
  %77 = load i32, i32* %6, align 4
  %78 = sext i32 %77 to i64
  %79 = getelementptr inbounds [501 x i32], [501 x i32]* %3, i64 0, i64 %78
  %80 = load i32, i32* %79, align 4
  %81 = add nsw i32 %80, 1
  store i32 %81, i32* %79, align 4
  br label %82

82:                                               ; preds = %76, %73
  br label %83

83:                                               ; preds = %82, %35
  br label %84

84:                                               ; preds = %83
  %85 = load i32, i32* %7, align 4
  %86 = add nsw i32 %85, 1
  store i32 %86, i32* %7, align 4
  br label %29

87:                                               ; preds = %29
  br label %88

88:                                               ; preds = %87
  %89 = load i32, i32* %6, align 4
  %90 = add nsw i32 %89, 1
  store i32 %90, i32* %6, align 4
  br label %17

91:                                               ; preds = %17
  %92 = getelementptr inbounds [501 x i32], [501 x i32]* %3, i64 0, i64 0
  %93 = load i32, i32* %92, align 16
  store i32 %93, i32* %10, align 4
  store i32 1, i32* %6, align 4
  br label %94

94:                                               ; preds = %113, %91
  %95 = load i32, i32* %6, align 4
  %96 = load i32, i32* %5, align 4
  %97 = load i32, i32* %4, align 4
  %98 = sub nsw i32 %96, %97
  %99 = icmp slt i32 %95, %98
  br i1 %99, label %100, label %116

100:                                              ; preds = %94
  %101 = load i32, i32* %6, align 4
  %102 = sext i32 %101 to i64
  %103 = getelementptr inbounds [501 x i32], [501 x i32]* %3, i64 0, i64 %102
  %104 = load i32, i32* %103, align 4
  %105 = load i32, i32* %10, align 4
  %106 = icmp sgt i32 %104, %105
  br i1 %106, label %107, label %112

107:                                              ; preds = %100
  %108 = load i32, i32* %6, align 4
  %109 = sext i32 %108 to i64
  %110 = getelementptr inbounds [501 x i32], [501 x i32]* %3, i64 0, i64 %109
  %111 = load i32, i32* %110, align 4
  store i32 %111, i32* %10, align 4
  br label %112

112:                                              ; preds = %107, %100
  br label %113

113:                                              ; preds = %112
  %114 = load i32, i32* %6, align 4
  %115 = add nsw i32 %114, 1
  store i32 %115, i32* %6, align 4
  br label %94

116:                                              ; preds = %94
  %117 = load i32, i32* %10, align 4
  %118 = icmp eq i32 %117, 1
  br i1 %118, label %119, label %121

119:                                              ; preds = %116
  %120 = call i32 (i8*, ...) @printf(i8* getelementptr inbounds ([3 x i8], [3 x i8]* @.str.2, i64 0, i64 0))
  br label %161

121:                                              ; preds = %116
  %122 = load i32, i32* %10, align 4
  %123 = call i32 (i8*, ...) @printf(i8* getelementptr inbounds ([4 x i8], [4 x i8]* @.str.3, i64 0, i64 0), i32 %122)
  store i32 0, i32* %6, align 4
  br label %124

124:                                              ; preds = %157, %121
  %125 = load i32, i32* %6, align 4
  %126 = load i32, i32* %5, align 4
  %127 = load i32, i32* %4, align 4
  %128 = sub nsw i32 %126, %127
  %129 = icmp sle i32 %125, %128
  br i1 %129, label %130, label %160

130:                                              ; preds = %124
  %131 = load i32, i32* %6, align 4
  %132 = sext i32 %131 to i64
  %133 = getelementptr inbounds [501 x i32], [501 x i32]* %3, i64 0, i64 %132
  %134 = load i32, i32* %133, align 4
  %135 = load i32, i32* %10, align 4
  %136 = icmp eq i32 %134, %135
  br i1 %136, label %137, label %156

137:                                              ; preds = %130
  store i32 0, i32* %7, align 4
  br label %138

138:                                              ; preds = %151, %137
  %139 = load i32, i32* %7, align 4
  %140 = load i32, i32* %4, align 4
  %141 = icmp slt i32 %139, %140
  br i1 %141, label %142, label %154

142:                                              ; preds = %138
  %143 = load i32, i32* %6, align 4
  %144 = load i32, i32* %7, align 4
  %145 = add nsw i32 %143, %144
  %146 = sext i32 %145 to i64
  %147 = getelementptr inbounds [501 x i8], [501 x i8]* %2, i64 0, i64 %146
  %148 = load i8, i8* %147, align 1
  %149 = sext i8 %148 to i32
  %150 = call i32 (i8*, ...) @printf(i8* getelementptr inbounds ([3 x i8], [3 x i8]* @.str.4, i64 0, i64 0), i32 %149)
  br label %151

151:                                              ; preds = %142
  %152 = load i32, i32* %7, align 4
  %153 = add nsw i32 %152, 1
  store i32 %153, i32* %7, align 4
  br label %138

154:                                              ; preds = %138
  %155 = call i32 (i8*, ...) @printf(i8* getelementptr inbounds ([2 x i8], [2 x i8]* @.str.5, i64 0, i64 0))
  br label %156

156:                                              ; preds = %154, %130
  br label %157

157:                                              ; preds = %156
  %158 = load i32, i32* %6, align 4
  %159 = add nsw i32 %158, 1
  store i32 %159, i32* %6, align 4
  br label %124

160:                                              ; preds = %124
  br label %161

161:                                              ; preds = %160, %119
  %162 = load i32, i32* %1, align 4
  ret i32 %162
}

declare dso_local i32 @__isoc99_scanf(i8*, ...) #1

; Function Attrs: nounwind readonly
declare dso_local i64 @strlen(i8*) #2

declare dso_local i32 @printf(i8*, ...) #1


!llvm.module.flags = !{!0}
!llvm.ident = !{!1}

!0 = !{i32 1, !"wchar_size", i32 4}
!1 = !{!"clang version 10.0.0-4ubuntu1 "}
